; ModuleID = '46/2144.c'
source_filename = "46/2144.c"
target datalayout = "e-m:e-p270:32:32-p271:32:32-p272:64:64-i64:64-f80:128-n8:16:32:64-S128"
target triple = "x86_64-pc-linux-gnu"

@.str = private unnamed_addr constant [6 x i8] c"%d %d\00", align 1
@.str.1 = private unnamed_addr constant [3 x i8] c"%d\00", align 1
@.str.2 = private unnamed_addr constant [4 x i8] c" %d\00", align 1
@.str.3 = private unnamed_addr constant [4 x i8] c"%d\0A\00", align 1

; Function Attrs: noinline nounwind uwtable
define dso_local i32 @main() #0 {
  %1 = alloca i32, align 4
  %2 = alloca i32, align 4
  %3 = alloca i32, align 4
  %4 = alloca i32, align 4
  %5 = alloca i32, align 4
  %6 = alloca i32, align 4
  %7 = alloca i32, align 4
  %8 = alloca i32, align 4
  %9 = alloca i32, align 4
  %10 = alloca [100 x [100 x i32]], align 16
  store i32 0, i32* %1, align 4
  store i32 0, i32* %4, align 4
  %11 = call i32 (i8*, ...) @__isoc99_scanf(i8* getelementptr inbounds ([6 x i8], [6 x i8]* @.str, i64 0, i64 0), i32* %8, i32* %9)
  store i32 0, i32* %2, align 4
  br label %12

12:                                               ; preds = %38, %0
  %13 = load i32, i32* %2, align 4
  %14 = load i32, i32* %8, align 4
  %15 = icmp slt i32 %13, %14
  br i1 %15, label %16, label %41

16:                                               ; preds = %12
  %17 = load i32, i32* %2, align 4
  %18 = sext i32 %17 to i64
  %19 = getelementptr inbounds [100 x [100 x i32]], [100 x [100 x i32]]* %10, i64 0, i64 %18
  %20 = getelementptr inbounds [100 x i32], [100 x i32]* %19, i64 0, i64 0
  %21 = call i32 (i8*, ...) @__isoc99_scanf(i8* getelementptr inbounds ([3 x i8], [3 x i8]* @.str.1, i64 0, i64 0), i32* %20)
  store i32 1, i32* %3, align 4
  br label %22

22:                                               ; preds = %34, %16
  %23 = load i32, i32* %3, align 4
  %24 = load i32, i32* %9, align 4
  %25 = icmp slt i32 %23, %24
  br i1 %25, label %26, label %37

26:                                               ; preds = %22
  %27 = load i32, i32* %2, align 4
  %28 = sext i32 %27 to i64
  %29 = getelementptr inbounds [100 x [100 x i32]], [100 x [100 x i32]]* %10, i64 0, i64 %28
  %30 = load i32, i32* %3, align 4
  %31 = sext i32 %30 to i64
  %32 = getelementptr inbounds [100 x i32], [100 x i32]* %29, i64 0, i64 %31
  %33 = call i32 (i8*, ...) @__isoc99_scanf(i8* getelementptr inbounds ([4 x i8], [4 x i8]* @.str.2, i64 0, i64 0), i32* %32)
  br label %34

34:                                               ; preds = %26
  %35 = load i32, i32* %3, align 4
  %36 = add nsw i32 %35, 1
  store i32 %36, i32* %3, align 4
  br label %22

37:                                               ; preds = %22
  br label %38

38:                                               ; preds = %37
  %39 = load i32, i32* %2, align 4
  %40 = add nsw i32 %39, 1
  store i32 %40, i32* %2, align 4
  br label %12

41:                                               ; preds = %12
  store i32 0, i32* %5, align 4
  %42 = load i32, i32* %8, align 4
  store i32 %42, i32* %6, align 4
  %43 = load i32, i32* %9, align 4
  store i32 %43, i32* %7, align 4
  br label %44

44:                                               ; preds = %159, %41
  %45 = load i32, i32* %5, align 4
  store i32 %45, i32* %3, align 4
  br label %46

46:                                               ; preds = %61, %44
  %47 = load i32, i32* %3, align 4
  %48 = load i32, i32* %7, align 4
  %49 = icmp slt i32 %47, %48
  br i1 %49, label %50, label %64

50:                                               ; preds = %46
  %51 = load i32, i32* %5, align 4
  %52 = sext i32 %51 to i64
  %53 = getelementptr inbounds [100 x [100 x i32]], [100 x [100 x i32]]* %10, i64 0, i64 %52
  %54 = load i32, i32* %3, align 4
  %55 = sext i32 %54 to i64
  %56 = getelementptr inbounds [100 x i32], [100 x i32]* %53, i64 0, i64 %55
  %57 = load i32, i32* %56, align 4
  %58 = call i32 (i8*, ...) @printf(i8* getelementptr inbounds ([4 x i8], [4 x i8]* @.str.3, i64 0, i64 0), i32 %57)
  %59 = load i32, i32* %4, align 4
  %60 = add nsw i32 %59, 1
  store i32 %60, i32* %4, align 4
  br label %61

61:                                               ; preds = %50
  %62 = load i32, i32* %3, align 4
  %63 = add nsw i32 %62, 1
  store i32 %63, i32* %3, align 4
  br label %46

64:                                               ; preds = %46
  %65 = load i32, i32* %4, align 4
  %66 = load i32, i32* %8, align 4
  %67 = load i32, i32* %9, align 4
  %68 = mul nsw i32 %66, %67
  %69 = icmp eq i32 %65, %68
  br i1 %69, label %70, label %71

70:                                               ; preds = %64
  br label %166

71:                                               ; preds = %64
  %72 = load i32, i32* %5, align 4
  %73 = add nsw i32 %72, 1
  store i32 %73, i32* %2, align 4
  br label %74

74:                                               ; preds = %90, %71
  %75 = load i32, i32* %2, align 4
  %76 = load i32, i32* %6, align 4
  %77 = icmp slt i32 %75, %76
  br i1 %77, label %78, label %93

78:                                               ; preds = %74
  %79 = load i32, i32* %2, align 4
  %80 = sext i32 %79 to i64
  %81 = getelementptr inbounds [100 x [100 x i32]], [100 x [100 x i32]]* %10, i64 0, i64 %80
  %82 = load i32, i32* %7, align 4
  %83 = sub nsw i32 %82, 1
  %84 = sext i32 %83 to i64
  %85 = getelementptr inbounds [100 x i32], [100 x i32]* %81, i64 0, i64 %84
  %86 = load i32, i32* %85, align 4
  %87 = call i32 (i8*, ...) @printf(i8* getelementptr inbounds ([4 x i8], [4 x i8]* @.str.3, i64 0, i64 0), i32 %86)
  %88 = load i32, i32* %4, align 4
  %89 = add nsw i32 %88, 1
  store i32 %89, i32* %4, align 4
  br label %90

90:                                               ; preds = %78
  %91 = load i32, i32* %2, align 4
  %92 = add nsw i32 %91, 1
  store i32 %92, i32* %2, align 4
  br label %74

93:                                               ; preds = %74
  %94 = load i32, i32* %4, align 4
  %95 = load i32, i32* %8, align 4
  %96 = load i32, i32* %9, align 4
  %97 = mul nsw i32 %95, %96
  %98 = icmp eq i32 %94, %97
  br i1 %98, label %99, label %100

99:                                               ; preds = %93
  br label %166

100:                                              ; preds = %93
  %101 = load i32, i32* %7, align 4
  %102 = sub nsw i32 %101, 2
  store i32 %102, i32* %3, align 4
  br label %103

103:                                              ; preds = %120, %100
  %104 = load i32, i32* %3, align 4
  %105 = load i32, i32* %5, align 4
  %106 = sub nsw i32 %105, 1
  %107 = icmp sgt i32 %104, %106
  br i1 %107, label %108, label %123

108:                                              ; preds = %103
  %109 = load i32, i32* %6, align 4
  %110 = sub nsw i32 %109, 1
  %111 = sext i32 %110 to i64
  %112 = getelementptr inbounds [100 x [100 x i32]], [100 x [100 x i32]]* %10, i64 0, i64 %111
  %113 = load i32, i32* %3, align 4
  %114 = sext i32 %113 to i64
  %115 = getelementptr inbounds [100 x i32], [100 x i32]* %112, i64 0, i64 %114
  %116 = load i32, i32* %115, align 4
  %117 = call i32 (i8*, ...) @printf(i8* getelementptr inbounds ([4 x i8], [4 x i8]* @.str.3, i64 0, i64 0), i32 %116)
  %118 = load i32, i32* %4, align 4
  %119 = add nsw i32 %118, 1
  store i32 %119, i32* %4, align 4
  br label %120

120:                                              ; preds = %108
  %121 = load i32, i32* %3, align 4
  %122 = add nsw i32 %121, -1
  store i32 %122, i32* %3, align 4
  br label %103

123:                                              ; preds = %103
  %124 = load i32, i32* %4, align 4
  %125 = load i32, i32* %8, align 4
  %126 = load i32, i32* %9, align 4
  %127 = mul nsw i32 %125, %126
  %128 = icmp eq i32 %124, %127
  br i1 %128, label %129, label %130

129:                                              ; preds = %123
  br label %166

130:                                              ; preds = %123
  %131 = load i32, i32* %6, align 4
  %132 = sub nsw i32 %131, 2
  store i32 %132, i32* %2, align 4
  br label %133

133:                                              ; preds = %148, %130
  %134 = load i32, i32* %2, align 4
  %135 = load i32, i32* %5, align 4
  %136 = icmp sgt i32 %134, %135
  br i1 %136, label %137, label %151

137:                                              ; preds = %133
  %138 = load i32, i32* %2, align 4
  %139 = sext i32 %138 to i64
  %140 = getelementptr inbounds [100 x [100 x i32]], [100 x [100 x i32]]* %10, i64 0, i64 %139
  %141 = load i32, i32* %5, align 4
  %142 = sext i32 %141 to i64
  %143 = getelementptr inbounds [100 x i32], [100 x i32]* %140, i64 0, i64 %142
  %144 = load i32, i32* %143, align 4
  %145 = call i32 (i8*, ...) @printf(i8* getelementptr inbounds ([4 x i8], [4 x i8]* @.str.3, i64 0, i64 0), i32 %144)
  %146 = load i32, i32* %4, align 4
  %147 = add nsw i32 %146, 1
  store i32 %147, i32* %4, align 4
  br label %148

148:                                              ; preds = %137
  %149 = load i32, i32* %2, align 4
  %150 = add nsw i32 %149, -1
  store i32 %150, i32* %2, align 4
  br label %133

151:                                              ; preds = %133
  %152 = load i32, i32* %4, align 4
  %153 = load i32, i32* %8, align 4
  %154 = load i32, i32* %9, align 4
  %155 = mul nsw i32 %153, %154
  %156 = icmp eq i32 %152, %155
  br i1 %156, label %157, label %158

157:                                              ; preds = %151
  br label %166

158:                                              ; preds = %151
  br label %159

159:                                              ; preds = %158
  %160 = load i32, i32* %5, align 4
  %161 = add nsw i32 %160, 1
  store i32 %161, i32* %5, align 4
  %162 = load i32, i32* %6, align 4
  %163 = add nsw i32 %162, -1
  store i32 %163, i32* %6, align 4
  %164 = load i32, i32* %7, align 4
  %165 = add nsw i32 %164, -1
  store i32 %165, i32* %7, align 4
  br label %44

166:                                              ; preds = %157, %129, %99, %70
  ret i32 0
}

declare dso_local i32 @__isoc99_scanf(i8*, ...) #1

declare dso_local i32 @printf(i8*, ...) #1


!llvm.module.flags = !{!0}
!llvm.ident = !{!1}

!0 = !{i32 1, !"wchar_size", i32 4}
!1 = !{!"clang version 10.0.0-4ubuntu1 "}
